; Function Attrs: mustprogress nofree norecurse nosync nounwind memory(write, argmem: readwrite, inaccessiblemem: none) uwtable
define hidden void @_ZN4cvc58internal6theory11quantifiers22EnumStreamSubstitution16CombinationState5resetEv(ptr nocapture noundef nonnull readonly align 8 dereferenceable(64) %this) local_unnamed_addr #7 align 2 {
entry:
  %d_last_comb = getelementptr inbounds i8, ptr %this, i64 16
  %0 = load ptr, ptr %d_last_comb, align 8
  %_M_finish.i = getelementptr inbounds i8, ptr %this, i64 24
  %1 = load ptr, ptr %_M_finish.i, align 8
  %cmp.i.not4.i = icmp eq ptr %0, %1
  br i1 %cmp.i.not4.i, label %_ZSt4iotaIN9__gnu_cxx17__normal_iteratorIPjSt6vectorIjSaIjEEEEiEvT_S7_T0_.exit, label %for.body.i

for.body.i:                                       ; preds = %entry, %for.body.i
  %__value.addr.06.i = phi i32 [ %inc.i, %for.body.i ], [ 0, %entry ]
  %__first.sroa.0.05.i = phi ptr [ %incdec.ptr.i.i, %for.body.i ], [ %0, %entry ]
  store i32 %__value.addr.06.i, ptr %__first.sroa.0.05.i, align 4
  %inc.i = add nuw nsw i32 %__value.addr.06.i, 1
  %incdec.ptr.i.i = getelementptr inbounds i8, ptr %__first.sroa.0.05.i, i64 4
  %cmp.i.not.i = icmp eq ptr %incdec.ptr.i.i, %1
  br i1 %cmp.i.not.i, label %_ZSt4iotaIN9__gnu_cxx17__normal_iteratorIPjSt6vectorIjSaIjEEEEiEvT_S7_T0_.exit, label %for.body.i, !llvm.loop !30

_ZSt4iotaIN9__gnu_cxx17__normal_iteratorIPjSt6vectorIjSaIjEEEEiEvT_S7_T0_.exit: ; preds = %for.body.i, %entry
  ret void
}